target datalayout = "e-m:e-p270:32:32-p271:32:32-p272:64:64-i64:64-i128:128-f80:128-n8:16:32:64-S128"
target triple = "x86_64-pc-linux-gnu"

%class.State = type { [315 x i32], [315 x i16], i32, ptr, [2 x ptr] }
%class.Node = type <{ ptr, ptr, ptr, i32, i32, i32, i32, i32, i32, i32, [4 x i8] }>
%class.Type = type <{ ptr, ptr, i32, [4 x i8] }>

; Function Attrs: mustprogress nounwind uwtable
define linkonce_odr hidden noundef ptr @_ZNK4Type12isa_vectmaskEv(ptr noundef nonnull align 8 dereferenceable(20) %0) #1 comdat align 2 {
  %2 = alloca ptr, align 8
  store ptr %0, ptr %2, align 8
  %3 = load ptr, ptr %2, align 8
  %4 = getelementptr inbounds %class.Type, ptr %3, i32 0, i32 2
  %5 = load i32, ptr %4, align 8
  %6 = icmp eq i32 %5, 11
  br i1 %6, label %7, label %8

7:                                                ; preds = %1
  br label %9

8:                                                ; preds = %1
  br label %9

9:                                                ; preds = %8, %7
  %10 = phi ptr [ %3, %7 ], [ null, %8 ]
  ret ptr %10
}

; Function Attrs: mustprogress nounwind uwtable
define linkonce_odr hidden noundef ptr @_ZNK4Node2inEj(ptr noundef nonnull align 8 dereferenceable(52) %0, i32 noundef %1) #1 comdat align 2 {
  %3 = alloca ptr, align 8
  %4 = alloca i32, align 4
  store ptr %0, ptr %3, align 8
  store i32 %1, ptr %4, align 4
  %5 = load ptr, ptr %3, align 8
  %6 = getelementptr inbounds %class.Node, ptr %5, i32 0, i32 1
  %7 = load ptr, ptr %6, align 8
  %8 = load i32, ptr %4, align 4
  %9 = zext i32 %8 to i64
  %10 = getelementptr inbounds ptr, ptr %7, i64 %9
  %11 = load ptr, ptr %10, align 8
  ret ptr %11
}

; Function Attrs: mustprogress nounwind uwtable
define hidden void @_ZN5State24_sub_Op_LoadVectorMaskedEPK4Node(ptr noundef nonnull align 8 dereferenceable(1920) %0, ptr noundef %1) #1 align 2 {
  %3 = alloca ptr, align 8
  %4 = alloca ptr, align 8
  %5 = alloca i32, align 4
  %6 = alloca i32, align 4
  store ptr %0, ptr %3, align 8
  store ptr %1, ptr %4, align 8
  %7 = load ptr, ptr %3, align 8
  %8 = getelementptr inbounds %class.State, ptr %7, i32 0, i32 4
  %9 = getelementptr inbounds [2 x ptr], ptr %8, i64 0, i64 0
  %10 = load ptr, ptr %9, align 8
  %11 = icmp ne ptr %10, null
  br i1 %11, label %12, label %72

12:                                               ; preds = %2
  %13 = getelementptr inbounds %class.State, ptr %7, i32 0, i32 4
  %14 = getelementptr inbounds [2 x ptr], ptr %13, i64 0, i64 0
  %15 = load ptr, ptr %14, align 8
  %16 = getelementptr inbounds %class.State, ptr %15, i32 0, i32 1
  %17 = getelementptr inbounds [315 x i16], ptr %16, i64 0, i64 127
  %18 = load i16, ptr %17, align 2
  %19 = zext i16 %18 to i32
  %20 = and i32 %19, 1
  %21 = icmp ne i32 %20, 0
  br i1 %21, label %22, label %72

22:                                               ; preds = %12
  %23 = getelementptr inbounds %class.State, ptr %7, i32 0, i32 4
  %24 = getelementptr inbounds [2 x ptr], ptr %23, i64 0, i64 1
  %25 = load ptr, ptr %24, align 8
  %26 = icmp ne ptr %25, null
  br i1 %26, label %27, label %72

27:                                               ; preds = %22
  %28 = getelementptr inbounds %class.State, ptr %7, i32 0, i32 4
  %29 = getelementptr inbounds [2 x ptr], ptr %28, i64 0, i64 1
  %30 = load ptr, ptr %29, align 8
  %31 = getelementptr inbounds %class.State, ptr %30, i32 0, i32 1
  %32 = getelementptr inbounds [315 x i16], ptr %31, i64 0, i64 48
  %33 = load i16, ptr %32, align 4
  %34 = zext i16 %33 to i32
  %35 = and i32 %34, 1
  %36 = icmp ne i32 %35, 0
  br i1 %36, label %37, label %72

37:                                               ; preds = %27
  %38 = load ptr, ptr %4, align 8
  %39 = call noundef ptr @_ZNK4Node2inEj(ptr noundef nonnull align 8 dereferenceable(52) %38, i32 noundef 3)
  %40 = load ptr, ptr %39, align 8
  %41 = getelementptr inbounds ptr, ptr %40, i64 5
  %42 = load ptr, ptr %41, align 8
  %43 = call noundef ptr %42(ptr noundef nonnull align 8 dereferenceable(52) %39)
  %44 = call noundef ptr @_ZNK4Type12isa_vectmaskEv(ptr noundef nonnull align 8 dereferenceable(20) %43)
  %45 = icmp ne ptr %44, null
  br i1 %45, label %46, label %72

46:                                               ; preds = %37
  %47 = getelementptr inbounds %class.State, ptr %7, i32 0, i32 4
  %48 = getelementptr inbounds [2 x ptr], ptr %47, i64 0, i64 0
  %49 = load ptr, ptr %48, align 8
  %50 = getelementptr inbounds %class.State, ptr %49, i32 0, i32 0
  %51 = getelementptr inbounds [315 x i32], ptr %50, i64 0, i64 127
  %52 = load i32, ptr %51, align 4
  %53 = getelementptr inbounds %class.State, ptr %7, i32 0, i32 4
  %54 = getelementptr inbounds [2 x ptr], ptr %53, i64 0, i64 1
  %55 = load ptr, ptr %54, align 8
  %56 = getelementptr inbounds %class.State, ptr %55, i32 0, i32 0
  %57 = getelementptr inbounds [315 x i32], ptr %56, i64 0, i64 48
  %58 = load i32, ptr %57, align 8
  %59 = add i32 %52, %58
  %60 = add i32 %59, 100
  store i32 %60, ptr %5, align 4
  %61 = load i32, ptr %5, align 4
  %62 = getelementptr inbounds %class.State, ptr %7, i32 0, i32 0
  %63 = getelementptr inbounds [315 x i32], ptr %62, i64 0, i64 114
  store i32 %61, ptr %63, align 8
  %64 = getelementptr inbounds %class.State, ptr %7, i32 0, i32 1
  %65 = getelementptr inbounds [315 x i16], ptr %64, i64 0, i64 114
  store i16 3045, ptr %65, align 4
  %66 = load i32, ptr %5, align 4
  %67 = add i32 %66, 100
  %68 = getelementptr inbounds %class.State, ptr %7, i32 0, i32 0
  %69 = getelementptr inbounds [315 x i32], ptr %68, i64 0, i64 115
  store i32 %67, ptr %69, align 4
  %70 = getelementptr inbounds %class.State, ptr %7, i32 0, i32 1
  %71 = getelementptr inbounds [315 x i16], ptr %70, i64 0, i64 115
  store i16 731, ptr %71, align 2
  br label %72

72:                                               ; preds = %46, %37, %27, %22, %12, %2
  %73 = getelementptr inbounds %class.State, ptr %7, i32 0, i32 4
  %74 = getelementptr inbounds [2 x ptr], ptr %73, i64 0, i64 0
  %75 = load ptr, ptr %74, align 8
  %76 = icmp ne ptr %75, null
  br i1 %76, label %77, label %166

77:                                               ; preds = %72
  %78 = getelementptr inbounds %class.State, ptr %7, i32 0, i32 4
  %79 = getelementptr inbounds [2 x ptr], ptr %78, i64 0, i64 0
  %80 = load ptr, ptr %79, align 8
  %81 = getelementptr inbounds %class.State, ptr %80, i32 0, i32 1
  %82 = getelementptr inbounds [315 x i16], ptr %81, i64 0, i64 127
  %83 = load i16, ptr %82, align 2
  %84 = zext i16 %83 to i32
  %85 = and i32 %84, 1
  %86 = icmp ne i32 %85, 0
  br i1 %86, label %87, label %166

87:                                               ; preds = %77
  %88 = getelementptr inbounds %class.State, ptr %7, i32 0, i32 4
  %89 = getelementptr inbounds [2 x ptr], ptr %88, i64 0, i64 1
  %90 = load ptr, ptr %89, align 8
  %91 = icmp ne ptr %90, null
  br i1 %91, label %92, label %166

92:                                               ; preds = %87
  %93 = getelementptr inbounds %class.State, ptr %7, i32 0, i32 4
  %94 = getelementptr inbounds [2 x ptr], ptr %93, i64 0, i64 1
  %95 = load ptr, ptr %94, align 8
  %96 = getelementptr inbounds %class.State, ptr %95, i32 0, i32 1
  %97 = getelementptr inbounds [315 x i16], ptr %96, i64 0, i64 114
  %98 = load i16, ptr %97, align 4
  %99 = zext i16 %98 to i32
  %100 = and i32 %99, 1
  %101 = icmp ne i32 %100, 0
  br i1 %101, label %102, label %166

102:                                              ; preds = %92
  %103 = load ptr, ptr %4, align 8
  %104 = call noundef ptr @_ZNK4Node2inEj(ptr noundef nonnull align 8 dereferenceable(52) %103, i32 noundef 3)
  %105 = load ptr, ptr %104, align 8
  %106 = getelementptr inbounds ptr, ptr %105, i64 5
  %107 = load ptr, ptr %106, align 8
  %108 = call noundef ptr %107(ptr noundef nonnull align 8 dereferenceable(52) %104)
  %109 = call noundef ptr @_ZNK4Type12isa_vectmaskEv(ptr noundef nonnull align 8 dereferenceable(20) %108)
  %110 = icmp ne ptr %109, null
  br i1 %110, label %166, label %111

111:                                              ; preds = %102
  %112 = getelementptr inbounds %class.State, ptr %7, i32 0, i32 4
  %113 = getelementptr inbounds [2 x ptr], ptr %112, i64 0, i64 0
  %114 = load ptr, ptr %113, align 8
  %115 = getelementptr inbounds %class.State, ptr %114, i32 0, i32 0
  %116 = getelementptr inbounds [315 x i32], ptr %115, i64 0, i64 127
  %117 = load i32, ptr %116, align 4
  %118 = getelementptr inbounds %class.State, ptr %7, i32 0, i32 4
  %119 = getelementptr inbounds [2 x ptr], ptr %118, i64 0, i64 1
  %120 = load ptr, ptr %119, align 8
  %121 = getelementptr inbounds %class.State, ptr %120, i32 0, i32 0
  %122 = getelementptr inbounds [315 x i32], ptr %121, i64 0, i64 114
  %123 = load i32, ptr %122, align 8
  %124 = add i32 %117, %123
  %125 = add i32 %124, 100
  store i32 %125, ptr %6, align 4
  %126 = getelementptr inbounds %class.State, ptr %7, i32 0, i32 1
  %127 = getelementptr inbounds [315 x i16], ptr %126, i64 0, i64 114
  %128 = load i16, ptr %127, align 4
  %129 = zext i16 %128 to i32
  %130 = and i32 %129, 1
  %131 = icmp eq i32 %130, 0
  br i1 %131, label %138, label %132

132:                                              ; preds = %111
  %133 = getelementptr inbounds %class.State, ptr %7, i32 0, i32 0
  %134 = getelementptr inbounds [315 x i32], ptr %133, i64 0, i64 114
  %135 = load i32, ptr %134, align 8
  %136 = load i32, ptr %6, align 4
  %137 = icmp ugt i32 %135, %136
  br i1 %137, label %138, label %144

138:                                              ; preds = %132, %111
  %139 = load i32, ptr %6, align 4
  %140 = getelementptr inbounds %class.State, ptr %7, i32 0, i32 0
  %141 = getelementptr inbounds [315 x i32], ptr %140, i64 0, i64 114
  store i32 %139, ptr %141, align 8
  %142 = getelementptr inbounds %class.State, ptr %7, i32 0, i32 1
  %143 = getelementptr inbounds [315 x i16], ptr %142, i64 0, i64 114
  store i16 3043, ptr %143, align 4
  br label %144

144:                                              ; preds = %138, %132
  %145 = getelementptr inbounds %class.State, ptr %7, i32 0, i32 1
  %146 = getelementptr inbounds [315 x i16], ptr %145, i64 0, i64 115
  %147 = load i16, ptr %146, align 2
  %148 = zext i16 %147 to i32
  %149 = and i32 %148, 1
  %150 = icmp eq i32 %149, 0
  br i1 %150, label %158, label %151

151:                                              ; preds = %144
  %152 = getelementptr inbounds %class.State, ptr %7, i32 0, i32 0
  %153 = getelementptr inbounds [315 x i32], ptr %152, i64 0, i64 115
  %154 = load i32, ptr %153, align 4
  %155 = load i32, ptr %6, align 4
  %156 = add i32 %155, 100
  %157 = icmp ugt i32 %154, %156
  br i1 %157, label %158, label %165

158:                                              ; preds = %151, %144
  %159 = load i32, ptr %6, align 4
  %160 = add i32 %159, 100
  %161 = getelementptr inbounds %class.State, ptr %7, i32 0, i32 0
  %162 = getelementptr inbounds [315 x i32], ptr %161, i64 0, i64 115
  store i32 %160, ptr %162, align 4
  %163 = getelementptr inbounds %class.State, ptr %7, i32 0, i32 1
  %164 = getelementptr inbounds [315 x i16], ptr %163, i64 0, i64 115
  store i16 731, ptr %164, align 2
  br label %165

165:                                              ; preds = %158, %151
  br label %166

166:                                              ; preds = %165, %102, %92, %87, %77, %72
  ret void
}