; Function Attrs: mustprogress nounwind uwtable
define hidden void @_ZN5State24_sub_Op_LoadVectorMaskedEPK4Node(ptr nocapture noundef nonnull align 8 dereferenceable(1920) %0, ptr nocapture noundef readonly %1) local_unnamed_addr #2 align 2 {
  %3 = getelementptr inbounds i8, ptr %0, i64 1904
  %4 = load ptr, ptr %3, align 8
  %.not = icmp eq ptr %4, null
  br i1 %.not, label %.thread, label %5

5:                                                ; preds = %2
  %6 = getelementptr inbounds i8, ptr %4, i64 1514
  %7 = load i16, ptr %6, align 2
  %8 = and i16 %7, 1
  %.not11 = icmp eq i16 %8, 0
  br i1 %.not11, label %.thread27, label %9

9:                                                ; preds = %5
  %10 = getelementptr inbounds i8, ptr %0, i64 1912
  %11 = load ptr, ptr %10, align 8
  %.not12 = icmp eq ptr %11, null
  br i1 %.not12, label %.thread27, label %12

12:                                               ; preds = %9
  %13 = getelementptr inbounds i8, ptr %11, i64 1356
  %14 = load i16, ptr %13, align 4
  %15 = and i16 %14, 1
  %.not13 = icmp eq i16 %15, 0
  br i1 %.not13, label %.thread27, label %16

16:                                               ; preds = %12
  %17 = getelementptr inbounds i8, ptr %1, i64 8
  %18 = load ptr, ptr %17, align 8
  %19 = getelementptr inbounds i8, ptr %18, i64 24
  %20 = load ptr, ptr %19, align 8
  %21 = load ptr, ptr %20, align 8
  %22 = getelementptr inbounds i8, ptr %21, i64 40
  %23 = load ptr, ptr %22, align 8
  %24 = tail call noundef ptr %23(ptr noundef nonnull align 8 dereferenceable(52) %20) #9
  %25 = getelementptr inbounds i8, ptr %24, i64 16
  %26 = load i32, ptr %25, align 8
  %27 = icmp ne i32 %26, 11
  %.not1424 = icmp eq ptr %24, null
  %.not14 = or i1 %.not1424, %27
  %.pr.pre = load ptr, ptr %3, align 8
  br i1 %.not14, label %41, label %28

28:                                               ; preds = %16
  %29 = getelementptr inbounds i8, ptr %.pr.pre, i64 508
  %30 = load i32, ptr %29, align 4
  %31 = load ptr, ptr %10, align 8
  %32 = getelementptr inbounds i8, ptr %31, i64 192
  %33 = load i32, ptr %32, align 8
  %34 = add i32 %33, %30
  %35 = add i32 %34, 100
  %36 = getelementptr inbounds i8, ptr %0, i64 456
  store i32 %35, ptr %36, align 8
  %37 = getelementptr inbounds i8, ptr %0, i64 1488
  store i16 3045, ptr %37, align 8
  %38 = add i32 %34, 200
  %39 = getelementptr inbounds i8, ptr %0, i64 460
  store i32 %38, ptr %39, align 4
  %40 = getelementptr inbounds i8, ptr %0, i64 1490
  store i16 731, ptr %40, align 2
  br label %.thread27

41:                                               ; preds = %16
  %.not15 = icmp eq ptr %.pr.pre, null
  br i1 %.not15, label %.thread, label %.thread27

.thread27:                                        ; preds = %5, %9, %12, %28, %41
  %.pr30 = phi ptr [ %.pr.pre, %41 ], [ %4, %5 ], [ %4, %9 ], [ %4, %12 ], [ %.pr.pre, %28 ]
  %42 = getelementptr inbounds i8, ptr %.pr30, i64 1514
  %43 = load i16, ptr %42, align 2
  %44 = and i16 %43, 1
  %.not16 = icmp eq i16 %44, 0
  br i1 %.not16, label %.thread, label %45

45:                                               ; preds = %.thread27
  %46 = getelementptr inbounds i8, ptr %0, i64 1912
  %47 = load ptr, ptr %46, align 8
  %.not17 = icmp eq ptr %47, null
  br i1 %.not17, label %.thread, label %48

48:                                               ; preds = %45
  %49 = getelementptr inbounds i8, ptr %47, i64 1488
  %50 = load i16, ptr %49, align 4
  %51 = and i16 %50, 1
  %.not18 = icmp eq i16 %51, 0
  br i1 %.not18, label %.thread, label %52

52:                                               ; preds = %48
  %53 = getelementptr inbounds i8, ptr %1, i64 8
  %54 = load ptr, ptr %53, align 8
  %55 = getelementptr inbounds i8, ptr %54, i64 24
  %56 = load ptr, ptr %55, align 8
  %57 = load ptr, ptr %56, align 8
  %58 = getelementptr inbounds i8, ptr %57, i64 40
  %59 = load ptr, ptr %58, align 8
  %60 = tail call noundef ptr %59(ptr noundef nonnull align 8 dereferenceable(52) %56) #9
  %61 = getelementptr inbounds i8, ptr %60, i64 16
  %62 = load i32, ptr %61, align 8
  %63 = icmp ne i32 %62, 11
  %.not1925 = icmp eq ptr %60, null
  %.not19 = or i1 %.not1925, %63
  br i1 %.not19, label %64, label %.thread

64:                                               ; preds = %52
  %65 = load ptr, ptr %3, align 8
  %66 = getelementptr inbounds i8, ptr %65, i64 508
  %67 = load i32, ptr %66, align 4
  %68 = load ptr, ptr %46, align 8
  %69 = getelementptr inbounds i8, ptr %68, i64 456
  %70 = load i32, ptr %69, align 8
  %71 = add i32 %70, %67
  %72 = add i32 %71, 100
  %73 = getelementptr inbounds i8, ptr %0, i64 1488
  %74 = load i16, ptr %73, align 8
  %75 = and i16 %74, 1
  %76 = icmp eq i16 %75, 0
  %77 = getelementptr inbounds i8, ptr %0, i64 456
  %78 = load i32, ptr %77, align 8
  %79 = icmp ugt i32 %78, %72
  %or.cond = select i1 %76, i1 true, i1 %79
  br i1 %or.cond, label %80, label %81

80:                                               ; preds = %64
  store i32 %72, ptr %77, align 8
  store i16 3043, ptr %73, align 8
  br label %81

81:                                               ; preds = %64, %80
  %82 = getelementptr inbounds i8, ptr %0, i64 1490
  %83 = load i16, ptr %82, align 2
  %84 = and i16 %83, 1
  %85 = icmp eq i16 %84, 0
  br i1 %85, label %._crit_edge, label %86

._crit_edge:                                      ; preds = %81
  %.pre = add i32 %71, 200
  br label %91

86:                                               ; preds = %81
  %87 = getelementptr inbounds i8, ptr %0, i64 460
  %88 = load i32, ptr %87, align 4
  %89 = add i32 %71, 200
  %90 = icmp ugt i32 %88, %89
  br i1 %90, label %91, label %.thread

91:                                               ; preds = %._crit_edge, %86
  %.pre-phi = phi i32 [ %.pre, %._crit_edge ], [ %89, %86 ]
  %92 = getelementptr inbounds i8, ptr %0, i64 460
  store i32 %.pre-phi, ptr %92, align 4
  store i16 731, ptr %82, align 2
  br label %.thread

.thread:                                          ; preds = %2, %86, %91, %52, %48, %45, %.thread27, %41
  ret void
}